; Function Attrs: mustprogress uwtable
define noundef i64 @_ZNK6marisa4Trie7io_sizeEv(ptr noundef nonnull readonly align 8 captures(none) dereferenceable(8) %0) local_unnamed_addr #5 align 2 personality ptr @__gxx_personality_v0 {
  %2 = load ptr, ptr %0, align 8, !tbaa !3
  %3 = icmp eq ptr %2, null
  br i1 %3, label %4, label %10

4:                                                ; preds = %1
  %5 = tail call ptr @__cxa_allocate_exception(i64 32) #12
  store ptr getelementptr inbounds nuw inrange(-16, 24) (i8, ptr @_ZTVN6marisa9ExceptionE, i64 16), ptr %5, align 8, !tbaa !9
  %6 = getelementptr inbounds nuw i8, ptr %5, i64 8
  store ptr @.str, ptr %6, align 8, !tbaa !11
  %7 = getelementptr inbounds nuw i8, ptr %5, i64 16
  store i32 159, ptr %7, align 8, !tbaa !17
  %8 = getelementptr inbounds nuw i8, ptr %5, i64 20
  store i32 1, ptr %8, align 4, !tbaa !18
  %9 = getelementptr inbounds nuw i8, ptr %5, i64 24
  store ptr @.str.26, ptr %9, align 8, !tbaa !19
  tail call void @__cxa_throw(ptr nonnull %5, ptr nonnull @_ZTIN6marisa9ExceptionE, ptr nonnull @_ZNSt9exceptionD2Ev) #15
  unreachable

10:                                               ; preds = %1
  %11 = tail call noundef i64 @_ZNK6marisa8grimoire4trie9LoudsTrie7io_sizeEv(ptr noundef nonnull align 8 dereferenceable(1136) %2)
  ret i64 %11
}